target datalayout = "e-m:e-p270:32:32-p271:32:32-p272:64:64-i64:64-i128:128-f80:128-n8:16:32:64-S128"
target triple = "x86_64-pc-linux-gnu"

%struct.reassembly_table = type { ptr, ptr, ptr, ptr, ptr }
%struct.reassembly_table_functions = type { ptr, ptr, ptr, ptr, ptr, ptr }

@proto_register_ndps.ett = internal global [3 x ptr] [ptr @ett_ndps, ptr @ett_ndps_segments, ptr @ett_ndps_segment], align 16
@.str.540 = private unnamed_addr constant [32 x i8] c"Novell Distributed Print System\00", align 1
@.str.541 = private unnamed_addr constant [5 x i8] c"NDPS\00", align 1
@.str.542 = private unnamed_addr constant [5 x i8] c"ndps\00", align 1
@proto_ndps = internal global i32 0, align 4
@.str.543 = private unnamed_addr constant [9 x i8] c"ndps.ipx\00", align 1
@ndps_handle = internal global ptr null, align 8
@.str.544 = private unnamed_addr constant [9 x i8] c"ndps.tcp\00", align 1
@ndps_tcp_handle = internal global ptr null, align 8
@.str.545 = private unnamed_addr constant [14 x i8] c"desegment_tcp\00", align 1
@.str.546 = private unnamed_addr constant [56 x i8] c"Reassemble NDPS messages spanning multiple TCP segments\00", align 1
@.str.547 = private unnamed_addr constant [205 x i8] c"Whether the NDPS dissector should reassemble messages spanning multiple TCP segments. To use this option, you must also enable \22Allow subdissectors to reassemble TCP streams\22 in the TCP protocol settings.\00", align 1
@ndps_desegment = internal global i32 1, align 4
@.str.548 = private unnamed_addr constant [14 x i8] c"desegment_spx\00", align 1
@.str.549 = private unnamed_addr constant [66 x i8] c"Reassemble fragmented NDPS messages spanning multiple SPX packets\00", align 1
@.str.550 = private unnamed_addr constant [100 x i8] c"Whether the NDPS dissector should reassemble fragmented NDPS messages spanning multiple SPX packets\00", align 1
@ndps_defragment = internal global i32 1, align 4
@.str.551 = private unnamed_addr constant [9 x i8] c"show_oid\00", align 1
@.str.552 = private unnamed_addr constant [21 x i8] c"Display NDPS Details\00", align 1
@.str.553 = private unnamed_addr constant [76 x i8] c"Whether or not the NDPS dissector should show object id's and other details\00", align 1
@ndps_show_oids = internal global i32 0, align 4
@ndps_reassembly_table = internal global %struct.reassembly_table zeroinitializer, align 8
@addresses_reassembly_table_functions = external constant %struct.reassembly_table_functions, align 8
@ndps_req_hash = internal global ptr null, align 8

; Function Attrs: nounwind uwtable
define hidden void @proto_register_ndps() #0 {
  %1 = alloca ptr, align 8
  %2 = alloca ptr, align 8
  %3 = call i32 @proto_register_protocol(ptr noundef @.str.540, ptr noundef @.str.541, ptr noundef @.str.542)
  store i32 %3, ptr @proto_ndps, align 4
  %4 = load i32, ptr @proto_ndps, align 4
  call void @proto_register_field_array(i32 noundef %4, ptr noundef @proto_register_ndps.hf_ndps, i32 noundef 276)
  call void @proto_register_subtree_array(ptr noundef @proto_register_ndps.ett, i32 noundef 3)
  %5 = load i32, ptr @proto_ndps, align 4
  %6 = call ptr @expert_register_protocol(i32 noundef %5)
  store ptr %6, ptr %2, align 8
  %7 = load ptr, ptr %2, align 8
  call void @expert_register_field_array(ptr noundef %7, ptr noundef @proto_register_ndps.ei, i32 noundef 4)
  %8 = load i32, ptr @proto_ndps, align 4
  %9 = call ptr @register_dissector(ptr noundef @.str.543, ptr noundef @dissect_ndps_ipx, i32 noundef %8)
  store ptr %9, ptr @ndps_handle, align 8
  %10 = load i32, ptr @proto_ndps, align 4
  %11 = call ptr @register_dissector(ptr noundef @.str.544, ptr noundef @dissect_ndps_tcp, i32 noundef %10)
  store ptr %11, ptr @ndps_tcp_handle, align 8
  %12 = load i32, ptr @proto_ndps, align 4
  %13 = call ptr @prefs_register_protocol(i32 noundef %12, ptr noundef null)
  store ptr %13, ptr %1, align 8
  %14 = load ptr, ptr %1, align 8
  call void @prefs_register_bool_preference(ptr noundef %14, ptr noundef @.str.545, ptr noundef @.str.546, ptr noundef @.str.547, ptr noundef @ndps_desegment)
  %15 = load ptr, ptr %1, align 8
  call void @prefs_register_bool_preference(ptr noundef %15, ptr noundef @.str.548, ptr noundef @.str.549, ptr noundef @.str.550, ptr noundef @ndps_defragment)
  %16 = load ptr, ptr %1, align 8
  call void @prefs_register_bool_preference(ptr noundef %16, ptr noundef @.str.551, ptr noundef @.str.552, ptr noundef @.str.553, ptr noundef @ndps_show_oids)
  call void @reassembly_table_register(ptr noundef @ndps_reassembly_table, ptr noundef @addresses_reassembly_table_functions)
  %17 = call ptr @wmem_epan_scope()
  %18 = call ptr @wmem_file_scope()
  %19 = call noalias ptr @wmem_map_new_autoreset(ptr noundef %17, ptr noundef %18, ptr noundef @ndps_hash, ptr noundef @ndps_equal)
  store ptr %19, ptr @ndps_req_hash, align 8
  ret void
}