; Function Attrs: nounwind uwtable
define hidden void @proto_register_ndps() local_unnamed_addr #0 {
  %1 = tail call i32 @proto_register_protocol(ptr noundef nonnull @.str.540, ptr noundef nonnull @.str.541, ptr noundef nonnull @.str.542) #6
  store i32 %1, ptr @proto_ndps, align 4
  tail call void @proto_register_field_array(i32 noundef %1, ptr noundef nonnull @proto_register_ndps.hf_ndps, i32 noundef 276) #6
  tail call void @proto_register_subtree_array(ptr noundef nonnull @proto_register_ndps.ett, i32 noundef 3) #6
  %2 = load i32, ptr @proto_ndps, align 4
  %3 = tail call ptr @expert_register_protocol(i32 noundef %2) #6
  tail call void @expert_register_field_array(ptr noundef %3, ptr noundef nonnull @proto_register_ndps.ei, i32 noundef 4) #6
  %4 = load i32, ptr @proto_ndps, align 4
  %5 = tail call ptr @register_dissector(ptr noundef nonnull @.str.543, ptr noundef nonnull @dissect_ndps_ipx, i32 noundef %4) #6
  store ptr %5, ptr @ndps_handle, align 8
  %6 = load i32, ptr @proto_ndps, align 4
  %7 = tail call ptr @register_dissector(ptr noundef nonnull @.str.544, ptr noundef nonnull @dissect_ndps_tcp, i32 noundef %6) #6
  store ptr %7, ptr @ndps_tcp_handle, align 8
  %8 = load i32, ptr @proto_ndps, align 4
  %9 = tail call ptr @prefs_register_protocol(i32 noundef %8, ptr noundef null) #6
  tail call void @prefs_register_bool_preference(ptr noundef %9, ptr noundef nonnull @.str.545, ptr noundef nonnull @.str.546, ptr noundef nonnull @.str.547, ptr noundef nonnull @ndps_desegment) #6
  tail call void @prefs_register_bool_preference(ptr noundef %9, ptr noundef nonnull @.str.548, ptr noundef nonnull @.str.549, ptr noundef nonnull @.str.550, ptr noundef nonnull @ndps_defragment) #6
  tail call void @prefs_register_bool_preference(ptr noundef %9, ptr noundef nonnull @.str.551, ptr noundef nonnull @.str.552, ptr noundef nonnull @.str.553, ptr noundef nonnull @ndps_show_oids) #6
  tail call void @reassembly_table_register(ptr noundef nonnull @ndps_reassembly_table, ptr noundef nonnull @addresses_reassembly_table_functions) #6
  %10 = tail call ptr @wmem_epan_scope() #6
  %11 = tail call ptr @wmem_file_scope() #6
  %12 = tail call noalias ptr @wmem_map_new_autoreset(ptr noundef %10, ptr noundef %11, ptr noundef nonnull @ndps_hash, ptr noundef nonnull @ndps_equal) #6
  store ptr %12, ptr @ndps_req_hash, align 8
  ret void
}